; ModuleID = '10/2104.c'
source_filename = "10/2104.c"
target datalayout = "e-m:e-p270:32:32-p271:32:32-p272:64:64-i64:64-f80:128-n8:16:32:64-S128"
target triple = "x86_64-pc-linux-gnu"

@.str = private unnamed_addr constant [3 x i8] c"%d\00", align 1

; Function Attrs: noinline nounwind uwtable
define dso_local i32 @main() #0 {
  %1 = alloca i32, align 4
  %2 = alloca i32, align 4
  %3 = alloca i32, align 4
  %4 = alloca i32, align 4
  %5 = alloca i32, align 4
  %6 = alloca i32, align 4
  %7 = alloca [25 x [2 x i32]], align 16
  store i32 0, i32* %1, align 4
  store i32 0, i32* %2, align 4
  store i32 0, i32* %3, align 4
  store i32 0, i32* %4, align 4
  store i32 0, i32* %5, align 4
  store i32 0, i32* %6, align 4
  %8 = call i32 (i8*, ...) @__isoc99_scanf(i8* getelementptr inbounds ([3 x i8], [3 x i8]* @.str, i64 0, i64 0), i32* %2)
  store i32 0, i32* %3, align 4
  br label %9

9:                                                ; preds = %23, %0
  %10 = load i32, i32* %3, align 4
  %11 = load i32, i32* %2, align 4
  %12 = icmp slt i32 %10, %11
  br i1 %12, label %13, label %26

13:                                               ; preds = %9
  %14 = load i32, i32* %3, align 4
  %15 = sext i32 %14 to i64
  %16 = getelementptr inbounds [25 x [2 x i32]], [25 x [2 x i32]]* %7, i64 0, i64 %15
  %17 = getelementptr inbounds [2 x i32], [2 x i32]* %16, i64 0, i64 0
  %18 = call i32 (i8*, ...) @__isoc99_scanf(i8* getelementptr inbounds ([3 x i8], [3 x i8]* @.str, i64 0, i64 0), i32* %17)
  %19 = load i32, i32* %3, align 4
  %20 = sext i32 %19 to i64
  %21 = getelementptr inbounds [25 x [2 x i32]], [25 x [2 x i32]]* %7, i64 0, i64 %20
  %22 = getelementptr inbounds [2 x i32], [2 x i32]* %21, i64 0, i64 1
  store i32 0, i32* %22, align 4
  br label %23

23:                                               ; preds = %13
  %24 = load i32, i32* %3, align 4
  %25 = add nsw i32 %24, 1
  store i32 %25, i32* %3, align 4
  br label %9

26:                                               ; preds = %9
  store i32 0, i32* %4, align 4
  br label %27

27:                                               ; preds = %73, %26
  %28 = load i32, i32* %4, align 4
  %29 = load i32, i32* %2, align 4
  %30 = icmp slt i32 %28, %29
  br i1 %30, label %31, label %76

31:                                               ; preds = %27
  store i32 0, i32* %6, align 4
  store i32 0, i32* %5, align 4
  br label %32

32:                                               ; preds = %69, %31
  %33 = load i32, i32* %5, align 4
  %34 = load i32, i32* %4, align 4
  %35 = icmp slt i32 %33, %34
  br i1 %35, label %36, label %72

36:                                               ; preds = %32
  %37 = load i32, i32* %5, align 4
  %38 = sext i32 %37 to i64
  %39 = getelementptr inbounds [25 x [2 x i32]], [25 x [2 x i32]]* %7, i64 0, i64 %38
  %40 = getelementptr inbounds [2 x i32], [2 x i32]* %39, i64 0, i64 1
  %41 = load i32, i32* %40, align 4
  %42 = load i32, i32* %6, align 4
  %43 = icmp sge i32 %41, %42
  br i1 %43, label %44, label %68

44:                                               ; preds = %36
  %45 = load i32, i32* %5, align 4
  %46 = sext i32 %45 to i64
  %47 = getelementptr inbounds [25 x [2 x i32]], [25 x [2 x i32]]* %7, i64 0, i64 %46
  %48 = getelementptr inbounds [2 x i32], [2 x i32]* %47, i64 0, i64 0
  %49 = load i32, i32* %48, align 8
  %50 = load i32, i32* %4, align 4
  %51 = sext i32 %50 to i64
  %52 = getelementptr inbounds [25 x [2 x i32]], [25 x [2 x i32]]* %7, i64 0, i64 %51
  %53 = getelementptr inbounds [2 x i32], [2 x i32]* %52, i64 0, i64 0
  %54 = load i32, i32* %53, align 8
  %55 = icmp sge i32 %49, %54
  br i1 %55, label %56, label %68

56:                                               ; preds = %44
  %57 = load i32, i32* %5, align 4
  %58 = sext i32 %57 to i64
  %59 = getelementptr inbounds [25 x [2 x i32]], [25 x [2 x i32]]* %7, i64 0, i64 %58
  %60 = getelementptr inbounds [2 x i32], [2 x i32]* %59, i64 0, i64 1
  %61 = load i32, i32* %60, align 4
  store i32 %61, i32* %6, align 4
  %62 = load i32, i32* %6, align 4
  %63 = add nsw i32 %62, 1
  %64 = load i32, i32* %4, align 4
  %65 = sext i32 %64 to i64
  %66 = getelementptr inbounds [25 x [2 x i32]], [25 x [2 x i32]]* %7, i64 0, i64 %65
  %67 = getelementptr inbounds [2 x i32], [2 x i32]* %66, i64 0, i64 1
  store i32 %63, i32* %67, align 4
  br label %68

68:                                               ; preds = %56, %44, %36
  br label %69

69:                                               ; preds = %68
  %70 = load i32, i32* %5, align 4
  %71 = add nsw i32 %70, 1
  store i32 %71, i32* %5, align 4
  br label %32

72:                                               ; preds = %32
  br label %73

73:                                               ; preds = %72
  %74 = load i32, i32* %4, align 4
  %75 = add nsw i32 %74, 1
  store i32 %75, i32* %4, align 4
  br label %27

76:                                               ; preds = %27
  store i32 0, i32* %6, align 4
  store i32 0, i32* %3, align 4
  br label %77

77:                                               ; preds = %96, %76
  %78 = load i32, i32* %3, align 4
  %79 = load i32, i32* %2, align 4
  %80 = icmp slt i32 %78, %79
  br i1 %80, label %81, label %99

81:                                               ; preds = %77
  %82 = load i32, i32* %3, align 4
  %83 = sext i32 %82 to i64
  %84 = getelementptr inbounds [25 x [2 x i32]], [25 x [2 x i32]]* %7, i64 0, i64 %83
  %85 = getelementptr inbounds [2 x i32], [2 x i32]* %84, i64 0, i64 1
  %86 = load i32, i32* %85, align 4
  %87 = load i32, i32* %6, align 4
  %88 = icmp sge i32 %86, %87
  br i1 %88, label %89, label %95

89:                                               ; preds = %81
  %90 = load i32, i32* %3, align 4
  %91 = sext i32 %90 to i64
  %92 = getelementptr inbounds [25 x [2 x i32]], [25 x [2 x i32]]* %7, i64 0, i64 %91
  %93 = getelementptr inbounds [2 x i32], [2 x i32]* %92, i64 0, i64 1
  %94 = load i32, i32* %93, align 4
  store i32 %94, i32* %6, align 4
  br label %95

95:                                               ; preds = %89, %81
  br label %96

96:                                               ; preds = %95
  %97 = load i32, i32* %3, align 4
  %98 = add nsw i32 %97, 1
  store i32 %98, i32* %3, align 4
  br label %77

99:                                               ; preds = %77
  %100 = load i32, i32* %6, align 4
  %101 = add nsw i32 %100, 1
  %102 = call i32 (i8*, ...) @printf(i8* getelementptr inbounds ([3 x i8], [3 x i8]* @.str, i64 0, i64 0), i32 %101)
  %103 = load i32, i32* %1, align 4
  ret i32 %103
}

declare dso_local i32 @__isoc99_scanf(i8*, ...) #1

declare dso_local i32 @printf(i8*, ...) #1


!llvm.module.flags = !{!0}
!llvm.ident = !{!1}

!0 = !{i32 1, !"wchar_size", i32 4}
!1 = !{!"clang version 10.0.0-4ubuntu1 "}
